; Function Attrs: nounwind sspstrong uwtable
define dso_local noundef zeroext i1 @visit_type_BlockdevOptionsCor_members(ptr noundef %v, ptr noundef %obj, ptr noundef %errp) local_unnamed_addr #0 {
entry:
  %has_bottom = alloca i8, align 1
  %bottom = getelementptr inbounds nuw i8, ptr %obj, i64 8
  %0 = load ptr, ptr %bottom, align 8
  %tobool = icmp ne ptr %0, null
  %frombool = zext i1 %tobool to i8
  store i8 %frombool, ptr %has_bottom, align 1
  %call.i = tail call zeroext i1 @visit_type_BlockdevRef(ptr noundef %v, ptr noundef nonnull @.str.63, ptr noundef %obj, ptr noundef %errp)
  br i1 %call.i, label %if.end, label %return

if.end:                                           ; preds = %entry
  %call2 = call zeroext i1 @visit_optional(ptr noundef %v, ptr noundef nonnull @.str.267, ptr noundef nonnull %has_bottom) #5
  br i1 %call2, label %if.then3, label %if.end8

if.then3:                                         ; preds = %if.end
  %call5 = call zeroext i1 @visit_type_str(ptr noundef %v, ptr noundef nonnull @.str.267, ptr noundef nonnull %bottom, ptr noundef %errp) #5
  br i1 %call5, label %if.end8, label %return

if.end8:                                          ; preds = %if.then3, %if.end
  br label %return

return:                                           ; preds = %if.then3, %entry, %if.end8
  %retval.0 = phi i1 [ true, %if.end8 ], [ false, %entry ], [ false, %if.then3 ]
  ret i1 %retval.0
}